target datalayout = "e-m:e-p270:32:32-p271:32:32-p272:64:64-i64:64-i128:128-f80:128-n8:16:32:64-S128"
target triple = "x86_64-pc-linux-gnu"

%struct._object = type { %union.anon, ptr }
%union.anon = type { i64 }
%struct.SemLockObject = type { %struct._object, ptr, i64, i32, i32, i32, ptr }

; Function Attrs: nounwind uwtable
define internal ptr @_multiprocessing_SemLock__get_value_impl(ptr noundef %0) #0 {
  %2 = alloca ptr, align 8
  %3 = alloca ptr, align 8
  %4 = alloca i32, align 4
  %5 = alloca i32, align 4
  store ptr %0, ptr %3, align 8, !tbaa !10
  call void @llvm.lifetime.start.p0(i64 4, ptr %4) #10
  %6 = load ptr, ptr %3, align 8, !tbaa !10
  %7 = getelementptr inbounds nuw %struct.SemLockObject, ptr %6, i32 0, i32 1
  %8 = load ptr, ptr %7, align 8, !tbaa !13
  %9 = call i32 @sem_getvalue(ptr noundef %8, ptr noundef %4) #10
  %10 = icmp slt i32 %9, 0
  br i1 %10, label %11, label %13

11:                                               ; preds = %1
  %12 = call ptr @_PyMp_SetError(ptr noundef null, i32 noundef -1)
  store ptr %12, ptr %2, align 8
  store i32 1, ptr %5, align 4
  br label %21

13:                                               ; preds = %1
  %14 = load i32, ptr %4, align 4, !tbaa !29
  %15 = icmp slt i32 %14, 0
  br i1 %15, label %16, label %17

16:                                               ; preds = %13
  store i32 0, ptr %4, align 4, !tbaa !29
  br label %17

17:                                               ; preds = %16, %13
  %18 = load i32, ptr %4, align 4, !tbaa !29
  %19 = sext i32 %18 to i64
  %20 = call ptr @PyLong_FromLong(i64 noundef %19)
  store ptr %20, ptr %2, align 8
  store i32 1, ptr %5, align 4
  br label %21

21:                                               ; preds = %17, %11
  call void @llvm.lifetime.end.p0(i64 4, ptr %4) #10
  %22 = load ptr, ptr %2, align 8
  ret ptr %22
}

; Function Attrs: nounwind uwtable
define internal ptr @_multiprocessing_SemLock__get_value(ptr noundef %0, ptr noundef %1) #0 {
  %3 = alloca ptr, align 8
  %4 = alloca ptr, align 8
  store ptr %0, ptr %3, align 8, !tbaa !8
  store ptr %1, ptr %4, align 8, !tbaa !8
  %5 = load ptr, ptr %3, align 8, !tbaa !8
  %6 = call ptr @_multiprocessing_SemLock__get_value_impl(ptr noundef %5)
  ret ptr %6
}