; Function Attrs: nounwind uwtable
define internal ptr @_multiprocessing_SemLock__get_value(ptr noundef readonly captures(none) %0, ptr readnone captures(none) %1) #0 {
  %3 = alloca i32, align 4
  %4 = getelementptr i8, ptr %0, i64 16
  %.val = load ptr, ptr %4, align 8, !tbaa !9
  call void @llvm.lifetime.start.p0(i64 4, ptr nonnull %3) #11
  %5 = call i32 @sem_getvalue(ptr noundef %.val, ptr noundef nonnull %3) #11
  %6 = icmp slt i32 %5, 0
  br i1 %6, label %7, label %9

7:                                                ; preds = %2
  %8 = call ptr @_PyMp_SetError(ptr noundef null, i32 noundef -1) #11
  br label %_multiprocessing_SemLock__get_value_impl.exit

9:                                                ; preds = %2
  %10 = load i32, ptr %3, align 4, !tbaa !33
  %11 = icmp slt i32 %10, 0
  br i1 %11, label %12, label %13

12:                                               ; preds = %9
  store i32 0, ptr %3, align 4, !tbaa !33
  br label %13

13:                                               ; preds = %12, %9
  %14 = phi i32 [ 0, %12 ], [ %10, %9 ]
  %15 = zext nneg i32 %14 to i64
  %16 = call ptr @PyLong_FromLong(i64 noundef %15) #11
  br label %_multiprocessing_SemLock__get_value_impl.exit

_multiprocessing_SemLock__get_value_impl.exit:    ; preds = %7, %13
  %.0.i = phi ptr [ %8, %7 ], [ %16, %13 ]
  call void @llvm.lifetime.end.p0(i64 4, ptr nonnull %3) #11
  ret ptr %.0.i
}